target datalayout = "e-m:e-p270:32:32-p271:32:32-p272:64:64-i64:64-i128:128-f80:128-n8:16:32:64-S128"
target triple = "x86_64-pc-linux-gnu"

%class.Register = type { i32 }
%class.StubCodeMark = type { ptr, ptr }
%class.StubCodeGenerator = type { ptr, i8, ptr }
%class.CodeSection = type { ptr, ptr, ptr, ptr, ptr, ptr, ptr, ptr, i8, i8, i32, i8, ptr }
%class.AbstractAssembler = type { ptr, ptr, ptr }

@.str = private unnamed_addr constant [13 x i8] c"StubRoutines\00", align 1
@_ZL3rbx = internal constant %class.Register { i32 3 }, align 4
@_ZL3rax = internal constant %class.Register zeroinitializer, align 4
@_ZL3rdx = internal constant %class.Register { i32 2 }, align 4
@_ZL3rdi = internal constant %class.Register { i32 7 }, align 4
@_ZL3rsi = internal constant %class.Register { i32 6 }, align 4
@_ZL3r11 = internal constant %class.Register { i32 11 }, align 4
@_ZL3rcx = internal constant %class.Register { i32 1 }, align 4
@.str.59 = private unnamed_addr constant [30 x i8] c"lookup_secondary_supers_table\00", align 1

; Function Attrs: mustprogress nounwind uwtable
define linkonce_odr hidden noundef ptr @_ZNK11CodeSection3endEv(ptr noundef nonnull align 8 dereferenceable(88) %0) #1 comdat align 2 {
  %2 = alloca ptr, align 8
  store ptr %0, ptr %2, align 8
  %3 = load ptr, ptr %2, align 8
  %4 = getelementptr inbounds %class.CodeSection, ptr %3, i32 0, i32 2
  %5 = load ptr, ptr %4, align 8
  ret ptr %5
}

; Function Attrs: mustprogress nounwind uwtable
define linkonce_odr hidden noundef ptr @_ZNK17AbstractAssembler12code_sectionEv(ptr noundef nonnull align 8 dereferenceable(24) %0) #1 comdat align 2 {
  %2 = alloca ptr, align 8
  store ptr %0, ptr %2, align 8
  %3 = load ptr, ptr %2, align 8
  %4 = getelementptr inbounds %class.AbstractAssembler, ptr %3, i32 0, i32 1
  %5 = load ptr, ptr %4, align 8
  ret ptr %5
}

; Function Attrs: mustprogress nounwind uwtable
define linkonce_odr hidden noundef ptr @_ZNK17AbstractAssembler2pcEv(ptr noundef nonnull align 8 dereferenceable(24) %0) #1 comdat align 2 {
  %2 = alloca ptr, align 8
  store ptr %0, ptr %2, align 8
  %3 = load ptr, ptr %2, align 8
  %4 = call noundef ptr @_ZNK17AbstractAssembler12code_sectionEv(ptr noundef nonnull align 8 dereferenceable(24) %3)
  %5 = call noundef ptr @_ZNK11CodeSection3endEv(ptr noundef nonnull align 8 dereferenceable(88) %4)
  ret ptr %5
}

; Function Attrs: mustprogress nounwind uwtable
define hidden noundef ptr @_ZN13StubGenerator43generate_lookup_secondary_supers_table_stubEh(ptr noundef nonnull align 8 dereferenceable(24) %0, i8 noundef zeroext %1) #1 align 2 {
  %3 = alloca ptr, align 8
  %4 = alloca i8, align 1
  %5 = alloca %class.StubCodeMark, align 8
  %6 = alloca ptr, align 8
  %7 = alloca %class.Register, align 4
  %8 = alloca %class.Register, align 4
  %9 = alloca %class.Register, align 4
  %10 = alloca %class.Register, align 4
  %11 = alloca %class.Register, align 4
  %12 = alloca %class.Register, align 4
  %13 = alloca %class.Register, align 4
  %14 = alloca %class.Register, align 4
  %15 = alloca %class.Register, align 4
  %16 = alloca %class.Register, align 4
  store ptr %0, ptr %3, align 8
  store i8 %1, ptr %4, align 1
  %17 = load ptr, ptr %3, align 8
  call void @_ZN12StubCodeMarkC1EP17StubCodeGeneratorPKcS3_(ptr noundef nonnull align 8 dereferenceable(16) %5, ptr noundef %17, ptr noundef @.str, ptr noundef @.str.59)
  %18 = getelementptr inbounds %class.StubCodeGenerator, ptr %17, i32 0, i32 2
  %19 = load ptr, ptr %18, align 8
  %20 = call noundef ptr @_ZNK17AbstractAssembler2pcEv(ptr noundef nonnull align 8 dereferenceable(24) %19)
  store ptr %20, ptr %6, align 8
  call void @llvm.memcpy.p0.p0.i64(ptr align 4 %7, ptr align 4 @_ZL3rax, i64 4, i1 false)
  call void @llvm.memcpy.p0.p0.i64(ptr align 4 %8, ptr align 4 @_ZL3rsi, i64 4, i1 false)
  call void @llvm.memcpy.p0.p0.i64(ptr align 4 %9, ptr align 4 @_ZL3rdi, i64 4, i1 false)
  %21 = getelementptr inbounds %class.StubCodeGenerator, ptr %17, i32 0, i32 2
  %22 = load ptr, ptr %21, align 8
  call void @llvm.memcpy.p0.p0.i64(ptr align 4 %10, ptr align 4 %8, i64 4, i1 false)
  call void @llvm.memcpy.p0.p0.i64(ptr align 4 %11, ptr align 4 %7, i64 4, i1 false)
  call void @llvm.memcpy.p0.p0.i64(ptr align 4 %12, ptr align 4 @_ZL3rdx, i64 4, i1 false)
  call void @llvm.memcpy.p0.p0.i64(ptr align 4 %13, ptr align 4 @_ZL3rcx, i64 4, i1 false)
  call void @llvm.memcpy.p0.p0.i64(ptr align 4 %14, ptr align 4 @_ZL3rbx, i64 4, i1 false)
  call void @llvm.memcpy.p0.p0.i64(ptr align 4 %15, ptr align 4 @_ZL3r11, i64 4, i1 false)
  call void @llvm.memcpy.p0.p0.i64(ptr align 4 %16, ptr align 4 %9, i64 4, i1 false)
  %23 = load i8, ptr %4, align 1
  %24 = getelementptr inbounds %class.Register, ptr %10, i32 0, i32 0
  %25 = load i32, ptr %24, align 4
  %26 = getelementptr inbounds %class.Register, ptr %11, i32 0, i32 0
  %27 = load i32, ptr %26, align 4
  %28 = getelementptr inbounds %class.Register, ptr %12, i32 0, i32 0
  %29 = load i32, ptr %28, align 4
  %30 = getelementptr inbounds %class.Register, ptr %13, i32 0, i32 0
  %31 = load i32, ptr %30, align 4
  %32 = getelementptr inbounds %class.Register, ptr %14, i32 0, i32 0
  %33 = load i32, ptr %32, align 4
  %34 = getelementptr inbounds %class.Register, ptr %15, i32 0, i32 0
  %35 = load i32, ptr %34, align 4
  %36 = getelementptr inbounds %class.Register, ptr %16, i32 0, i32 0
  %37 = load i32, ptr %36, align 4
  call void @_ZN14MacroAssembler29lookup_secondary_supers_tableE8RegisterS0_S0_S0_S0_S0_S0_h(ptr noundef nonnull align 8 dereferenceable(40) %22, i32 %25, i32 %27, i32 %29, i32 %31, i32 %33, i32 %35, i32 %37, i8 noundef zeroext %23)
  %38 = getelementptr inbounds %class.StubCodeGenerator, ptr %17, i32 0, i32 2
  %39 = load ptr, ptr %38, align 8
  call void @_ZN9Assembler3retEi(ptr noundef nonnull align 8 dereferenceable(40) %39, i32 noundef 0)
  %40 = load ptr, ptr %6, align 8
  call void @_ZN12StubCodeMarkD1Ev(ptr noundef nonnull align 8 dereferenceable(16) %5) #7
  ret ptr %40
}