; Function Attrs: mustprogress nounwind uwtable
define hidden noundef ptr @_ZN13StubGenerator43generate_lookup_secondary_supers_table_stubEh(ptr noundef nonnull align 8 dereferenceable(24) %0, i8 noundef zeroext %1) local_unnamed_addr #0 align 2 {
  %3 = alloca %class.StubCodeMark, align 8
  call void @_ZN12StubCodeMarkC1EP17StubCodeGeneratorPKcS3_(ptr noundef nonnull align 8 dereferenceable(16) %3, ptr noundef nonnull %0, ptr noundef nonnull @.str, ptr noundef nonnull @.str.59) #12
  %4 = getelementptr inbounds i8, ptr %0, i64 16
  %5 = load ptr, ptr %4, align 8
  %6 = getelementptr inbounds i8, ptr %5, i64 8
  %7 = load ptr, ptr %6, align 8
  %8 = getelementptr inbounds i8, ptr %7, i64 16
  %9 = load ptr, ptr %8, align 8
  call void @_ZN14MacroAssembler29lookup_secondary_supers_tableE8RegisterS0_S0_S0_S0_S0_S0_h(ptr noundef nonnull align 8 dereferenceable(40) %5, i32 6, i32 0, i32 2, i32 1, i32 3, i32 11, i32 7, i8 noundef zeroext %1) #12
  %10 = load ptr, ptr %4, align 8
  call void @_ZN9Assembler3retEi(ptr noundef nonnull align 8 dereferenceable(40) %10, i32 noundef 0) #12
  call void @_ZN12StubCodeMarkD1Ev(ptr noundef nonnull align 8 dereferenceable(16) %3) #12
  ret ptr %9
}